; ModuleID = '21/189.c'
source_filename = "21/189.c"
target datalayout = "e-m:e-p270:32:32-p271:32:32-p272:64:64-i64:64-f80:128-n8:16:32:64-S128"
target triple = "x86_64-pc-linux-gnu"

@.str = private unnamed_addr constant [3 x i8] c"%d\00", align 1
@.str.1 = private unnamed_addr constant [4 x i8] c",%d\00", align 1

; Function Attrs: noinline nounwind uwtable
define dso_local i32 @main() #0 {
  %1 = alloca i32, align 4
  %2 = alloca i32, align 4
  %3 = alloca i32, align 4
  %4 = alloca i32, align 4
  %5 = alloca i32, align 4
  %6 = alloca [300 x i32], align 16
  %7 = alloca i32, align 4
  %8 = alloca float, align 4
  %9 = alloca float, align 4
  %10 = alloca [300 x float], align 16
  %11 = alloca float, align 4
  store i32 0, i32* %1, align 4
  store float 0.000000e+00, float* %8, align 4
  %12 = call i32 (i8*, ...) @__isoc99_scanf(i8* getelementptr inbounds ([3 x i8], [3 x i8]* @.str, i64 0, i64 0), i32* %2)
  store i32 0, i32* %3, align 4
  br label %13

13:                                               ; preds = %29, %0
  %14 = load i32, i32* %3, align 4
  %15 = load i32, i32* %2, align 4
  %16 = icmp slt i32 %14, %15
  br i1 %16, label %17, label %32

17:                                               ; preds = %13
  %18 = load i32, i32* %3, align 4
  %19 = sext i32 %18 to i64
  %20 = getelementptr inbounds [300 x i32], [300 x i32]* %6, i64 0, i64 %19
  %21 = call i32 (i8*, ...) @__isoc99_scanf(i8* getelementptr inbounds ([3 x i8], [3 x i8]* @.str, i64 0, i64 0), i32* %20)
  %22 = load i32, i32* %3, align 4
  %23 = sext i32 %22 to i64
  %24 = getelementptr inbounds [300 x i32], [300 x i32]* %6, i64 0, i64 %23
  %25 = load i32, i32* %24, align 4
  %26 = sitofp i32 %25 to float
  %27 = load float, float* %8, align 4
  %28 = fadd float %27, %26
  store float %28, float* %8, align 4
  br label %29

29:                                               ; preds = %17
  %30 = load i32, i32* %3, align 4
  %31 = add nsw i32 %30, 1
  store i32 %31, i32* %3, align 4
  br label %13

32:                                               ; preds = %13
  %33 = load float, float* %8, align 4
  %34 = load i32, i32* %2, align 4
  %35 = sitofp i32 %34 to float
  %36 = fdiv float %33, %35
  store float %36, float* %9, align 4
  store i32 0, i32* %3, align 4
  br label %37

37:                                               ; preds = %72, %32
  %38 = load i32, i32* %3, align 4
  %39 = load i32, i32* %2, align 4
  %40 = icmp slt i32 %38, %39
  br i1 %40, label %41, label %75

41:                                               ; preds = %37
  %42 = load i32, i32* %3, align 4
  %43 = sext i32 %42 to i64
  %44 = getelementptr inbounds [300 x i32], [300 x i32]* %6, i64 0, i64 %43
  %45 = load i32, i32* %44, align 4
  %46 = sitofp i32 %45 to float
  %47 = load float, float* %9, align 4
  %48 = fcmp ogt float %46, %47
  br i1 %48, label %49, label %60

49:                                               ; preds = %41
  %50 = load i32, i32* %3, align 4
  %51 = sext i32 %50 to i64
  %52 = getelementptr inbounds [300 x i32], [300 x i32]* %6, i64 0, i64 %51
  %53 = load i32, i32* %52, align 4
  %54 = sitofp i32 %53 to float
  %55 = load float, float* %9, align 4
  %56 = fsub float %54, %55
  %57 = load i32, i32* %3, align 4
  %58 = sext i32 %57 to i64
  %59 = getelementptr inbounds [300 x float], [300 x float]* %10, i64 0, i64 %58
  store float %56, float* %59, align 4
  br label %71

60:                                               ; preds = %41
  %61 = load float, float* %9, align 4
  %62 = load i32, i32* %3, align 4
  %63 = sext i32 %62 to i64
  %64 = getelementptr inbounds [300 x i32], [300 x i32]* %6, i64 0, i64 %63
  %65 = load i32, i32* %64, align 4
  %66 = sitofp i32 %65 to float
  %67 = fsub float %61, %66
  %68 = load i32, i32* %3, align 4
  %69 = sext i32 %68 to i64
  %70 = getelementptr inbounds [300 x float], [300 x float]* %10, i64 0, i64 %69
  store float %67, float* %70, align 4
  br label %71

71:                                               ; preds = %60, %49
  br label %72

72:                                               ; preds = %71
  %73 = load i32, i32* %3, align 4
  %74 = add nsw i32 %73, 1
  store i32 %74, i32* %3, align 4
  br label %37

75:                                               ; preds = %37
  store i32 0, i32* %3, align 4
  br label %76

76:                                               ; preds = %196, %75
  %77 = load i32, i32* %3, align 4
  %78 = load i32, i32* %2, align 4
  %79 = sub nsw i32 %78, 1
  %80 = icmp slt i32 %77, %79
  br i1 %80, label %81, label %199

81:                                               ; preds = %76
  store i32 0, i32* %4, align 4
  br label %82

82:                                               ; preds = %192, %81
  %83 = load i32, i32* %4, align 4
  %84 = load i32, i32* %2, align 4
  %85 = sub nsw i32 %84, 1
  %86 = icmp slt i32 %83, %85
  br i1 %86, label %87, label %195

87:                                               ; preds = %82
  %88 = load i32, i32* %4, align 4
  %89 = sext i32 %88 to i64
  %90 = getelementptr inbounds [300 x float], [300 x float]* %10, i64 0, i64 %89
  %91 = load float, float* %90, align 4
  %92 = load i32, i32* %4, align 4
  %93 = add nsw i32 %92, 1
  %94 = sext i32 %93 to i64
  %95 = getelementptr inbounds [300 x float], [300 x float]* %10, i64 0, i64 %94
  %96 = load float, float* %95, align 4
  %97 = fcmp olt float %91, %96
  br i1 %97, label %98, label %133

98:                                               ; preds = %87
  %99 = load i32, i32* %4, align 4
  %100 = sext i32 %99 to i64
  %101 = getelementptr inbounds [300 x float], [300 x float]* %10, i64 0, i64 %100
  %102 = load float, float* %101, align 4
  store float %102, float* %11, align 4
  %103 = load i32, i32* %4, align 4
  %104 = add nsw i32 %103, 1
  %105 = sext i32 %104 to i64
  %106 = getelementptr inbounds [300 x float], [300 x float]* %10, i64 0, i64 %105
  %107 = load float, float* %106, align 4
  %108 = load i32, i32* %4, align 4
  %109 = sext i32 %108 to i64
  %110 = getelementptr inbounds [300 x float], [300 x float]* %10, i64 0, i64 %109
  store float %107, float* %110, align 4
  %111 = load float, float* %11, align 4
  %112 = load i32, i32* %4, align 4
  %113 = add nsw i32 %112, 1
  %114 = sext i32 %113 to i64
  %115 = getelementptr inbounds [300 x float], [300 x float]* %10, i64 0, i64 %114
  store float %111, float* %115, align 4
  %116 = load i32, i32* %4, align 4
  %117 = sext i32 %116 to i64
  %118 = getelementptr inbounds [300 x i32], [300 x i32]* %6, i64 0, i64 %117
  %119 = load i32, i32* %118, align 4
  store i32 %119, i32* %5, align 4
  %120 = load i32, i32* %4, align 4
  %121 = add nsw i32 %120, 1
  %122 = sext i32 %121 to i64
  %123 = getelementptr inbounds [300 x i32], [300 x i32]* %6, i64 0, i64 %122
  %124 = load i32, i32* %123, align 4
  %125 = load i32, i32* %4, align 4
  %126 = sext i32 %125 to i64
  %127 = getelementptr inbounds [300 x i32], [300 x i32]* %6, i64 0, i64 %126
  store i32 %124, i32* %127, align 4
  %128 = load i32, i32* %5, align 4
  %129 = load i32, i32* %4, align 4
  %130 = add nsw i32 %129, 1
  %131 = sext i32 %130 to i64
  %132 = getelementptr inbounds [300 x i32], [300 x i32]* %6, i64 0, i64 %131
  store i32 %128, i32* %132, align 4
  br label %191

133:                                              ; preds = %87
  %134 = load i32, i32* %4, align 4
  %135 = sext i32 %134 to i64
  %136 = getelementptr inbounds [300 x float], [300 x float]* %10, i64 0, i64 %135
  %137 = load float, float* %136, align 4
  %138 = load i32, i32* %4, align 4
  %139 = add nsw i32 %138, 1
  %140 = sext i32 %139 to i64
  %141 = getelementptr inbounds [300 x float], [300 x float]* %10, i64 0, i64 %140
  %142 = load float, float* %141, align 4
  %143 = fcmp oeq float %137, %142
  br i1 %143, label %144, label %190

144:                                              ; preds = %133
  %145 = load i32, i32* %4, align 4
  %146 = sext i32 %145 to i64
  %147 = getelementptr inbounds [300 x i32], [300 x i32]* %6, i64 0, i64 %146
  %148 = load i32, i32* %147, align 4
  %149 = load i32, i32* %4, align 4
  %150 = add nsw i32 %149, 1
  %151 = sext i32 %150 to i64
  %152 = getelementptr inbounds [300 x i32], [300 x i32]* %6, i64 0, i64 %151
  %153 = load i32, i32* %152, align 4
  %154 = icmp sgt i32 %148, %153
  br i1 %154, label %155, label %190

155:                                              ; preds = %144
  %156 = load i32, i32* %4, align 4
  %157 = sext i32 %156 to i64
  %158 = getelementptr inbounds [300 x float], [300 x float]* %10, i64 0, i64 %157
  %159 = load float, float* %158, align 4
  store float %159, float* %11, align 4
  %160 = load i32, i32* %4, align 4
  %161 = add nsw i32 %160, 1
  %162 = sext i32 %161 to i64
  %163 = getelementptr inbounds [300 x float], [300 x float]* %10, i64 0, i64 %162
  %164 = load float, float* %163, align 4
  %165 = load i32, i32* %4, align 4
  %166 = sext i32 %165 to i64
  %167 = getelementptr inbounds [300 x float], [300 x float]* %10, i64 0, i64 %166
  store float %164, float* %167, align 4
  %168 = load float, float* %11, align 4
  %169 = load i32, i32* %4, align 4
  %170 = add nsw i32 %169, 1
  %171 = sext i32 %170 to i64
  %172 = getelementptr inbounds [300 x float], [300 x float]* %10, i64 0, i64 %171
  store float %168, float* %172, align 4
  %173 = load i32, i32* %4, align 4
  %174 = sext i32 %173 to i64
  %175 = getelementptr inbounds [300 x i32], [300 x i32]* %6, i64 0, i64 %174
  %176 = load i32, i32* %175, align 4
  store i32 %176, i32* %5, align 4
  %177 = load i32, i32* %4, align 4
  %178 = add nsw i32 %177, 1
  %179 = sext i32 %178 to i64
  %180 = getelementptr inbounds [300 x i32], [300 x i32]* %6, i64 0, i64 %179
  %181 = load i32, i32* %180, align 4
  %182 = load i32, i32* %4, align 4
  %183 = sext i32 %182 to i64
  %184 = getelementptr inbounds [300 x i32], [300 x i32]* %6, i64 0, i64 %183
  store i32 %181, i32* %184, align 4
  %185 = load i32, i32* %5, align 4
  %186 = load i32, i32* %4, align 4
  %187 = add nsw i32 %186, 1
  %188 = sext i32 %187 to i64
  %189 = getelementptr inbounds [300 x i32], [300 x i32]* %6, i64 0, i64 %188
  store i32 %185, i32* %189, align 4
  br label %190

190:                                              ; preds = %155, %144, %133
  br label %191

191:                                              ; preds = %190, %98
  br label %192

192:                                              ; preds = %191
  %193 = load i32, i32* %4, align 4
  %194 = add nsw i32 %193, 1
  store i32 %194, i32* %4, align 4
  br label %82

195:                                              ; preds = %82
  br label %196

196:                                              ; preds = %195
  %197 = load i32, i32* %3, align 4
  %198 = add nsw i32 %197, 1
  store i32 %198, i32* %3, align 4
  br label %76

199:                                              ; preds = %76
  %200 = getelementptr inbounds [300 x float], [300 x float]* %10, i64 0, i64 0
  %201 = load float, float* %200, align 16
  %202 = fptosi float %201 to i32
  store i32 %202, i32* %7, align 4
  %203 = getelementptr inbounds [300 x i32], [300 x i32]* %6, i64 0, i64 0
  %204 = load i32, i32* %203, align 16
  %205 = call i32 (i8*, ...) @printf(i8* getelementptr inbounds ([3 x i8], [3 x i8]* @.str, i64 0, i64 0), i32 %204)
  store i32 1, i32* %3, align 4
  br label %206

206:                                              ; preds = %226, %199
  %207 = load i32, i32* %3, align 4
  %208 = load i32, i32* %2, align 4
  %209 = icmp slt i32 %207, %208
  br i1 %209, label %210, label %229

210:                                              ; preds = %206
  %211 = load i32, i32* %3, align 4
  %212 = sext i32 %211 to i64
  %213 = getelementptr inbounds [300 x float], [300 x float]* %10, i64 0, i64 %212
  %214 = load float, float* %213, align 4
  %215 = load i32, i32* %7, align 4
  %216 = sitofp i32 %215 to float
  %217 = fcmp oeq float %214, %216
  br i1 %217, label %218, label %224

218:                                              ; preds = %210
  %219 = load i32, i32* %3, align 4
  %220 = sext i32 %219 to i64
  %221 = getelementptr inbounds [300 x i32], [300 x i32]* %6, i64 0, i64 %220
  %222 = load i32, i32* %221, align 4
  %223 = call i32 (i8*, ...) @printf(i8* getelementptr inbounds ([4 x i8], [4 x i8]* @.str.1, i64 0, i64 0), i32 %222)
  br label %225

224:                                              ; preds = %210
  br label %229

225:                                              ; preds = %218
  br label %226

226:                                              ; preds = %225
  %227 = load i32, i32* %3, align 4
  %228 = add nsw i32 %227, 1
  store i32 %228, i32* %3, align 4
  br label %206

229:                                              ; preds = %224, %206
  ret i32 0
}

declare dso_local i32 @__isoc99_scanf(i8*, ...) #1

declare dso_local i32 @printf(i8*, ...) #1


!llvm.module.flags = !{!0}
!llvm.ident = !{!1}

!0 = !{i32 1, !"wchar_size", i32 4}
!1 = !{!"clang version 10.0.0-4ubuntu1 "}
